; ModuleID = '45/894.c'
source_filename = "45/894.c"
target datalayout = "e-m:e-p270:32:32-p271:32:32-p272:64:64-i64:64-f80:128-n8:16:32:64-S128"
target triple = "x86_64-pc-linux-gnu"

@.str = private unnamed_addr constant [6 x i8] c"%s %s\00", align 1
@.str.1 = private unnamed_addr constant [3 x i8] c"%d\00", align 1

; Function Attrs: noinline nounwind uwtable
define dso_local void @main() #0 {
  %1 = alloca [50 x i8], align 16
  %2 = alloca [50 x i8], align 16
  %3 = alloca i32, align 4
  %4 = alloca i32, align 4
  %5 = alloca i32, align 4
  %6 = alloca i32, align 4
  %7 = alloca i32, align 4
  %8 = alloca i32, align 4
  %9 = alloca i32, align 4
  %10 = alloca i32, align 4
  %11 = alloca i32, align 4
  %12 = alloca i32, align 4
  %13 = alloca i32, align 4
  %14 = getelementptr inbounds [50 x i8], [50 x i8]* %1, i64 0, i64 0
  %15 = getelementptr inbounds [50 x i8], [50 x i8]* %2, i64 0, i64 0
  %16 = call i32 (i8*, ...) @__isoc99_scanf(i8* getelementptr inbounds ([6 x i8], [6 x i8]* @.str, i64 0, i64 0), i8* %14, i8* %15)
  %17 = getelementptr inbounds [50 x i8], [50 x i8]* %2, i64 0, i64 0
  %18 = getelementptr inbounds [50 x i8], [50 x i8]* %1, i64 0, i64 0
  %19 = call i8* @strstr(i8* %17, i8* %18) #3
  %20 = getelementptr inbounds [50 x i8], [50 x i8]* %2, i64 0, i64 0
  %21 = ptrtoint i8* %19 to i64
  %22 = ptrtoint i8* %20 to i64
  %23 = sub i64 %21, %22
  %24 = trunc i64 %23 to i32
  store i32 %24, i32* %13, align 4
  %25 = load i32, i32* %13, align 4
  %26 = call i32 (i8*, ...) @printf(i8* getelementptr inbounds ([3 x i8], [3 x i8]* @.str.1, i64 0, i64 0), i32 %25)
  ret void
}

declare dso_local i32 @__isoc99_scanf(i8*, ...) #1

; Function Attrs: nounwind readonly
declare dso_local i8* @strstr(i8*, i8*) #2

declare dso_local i32 @printf(i8*, ...) #1


!llvm.module.flags = !{!0}
!llvm.ident = !{!1}

!0 = !{i32 1, !"wchar_size", i32 4}
!1 = !{!"clang version 10.0.0-4ubuntu1 "}
